target datalayout = "e-m:e-p270:32:32-p271:32:32-p272:64:64-i64:64-i128:128-f80:128-n8:16:32:64-S128"
target triple = "x86_64-pc-linux-gnu"

%struct.ParseState = type { ptr, ptr, i32, i32, ptr, ptr, ptr, ptr, ptr, ptr, i8, ptr, ptr, ptr, ptr, ptr, ptr, i8, ptr, i32, i32, ptr, ptr, i8, i8, ptr, i8, i8, i8, i8, i8, ptr, ptr, ptr, ptr, ptr, ptr }
%struct.Node = type { i32 }
%struct.A_Expr = type { i32, i32, ptr, ptr, ptr, i32 }
%struct.Expr = type { i32 }
%struct.NullTest = type { %struct.Expr, ptr, i32, i8, i32 }
%union.ListCell = type { ptr }
%struct.String = type { i32, ptr }
%struct.List = type { i32, i32, i32, ptr, [0 x %union.ListCell] }
%struct.SubLink = type { %struct.Expr, i32, i32, ptr, ptr, ptr, i32 }
%struct.RowExpr = type { %struct.Expr, ptr, i32, i32, ptr, i32 }
%struct.A_Const = type { i32, %union.ValUnion, i8, i32 }
%union.ValUnion = type { %struct.Float }
%struct.Float = type { i32, ptr }

@Transform_null_equals = dso_local global i8 0, align 1
@.str.63 = private unnamed_addr constant [2 x i8] c"=\00", align 1

; Function Attrs: inlinehint nounwind uwtable
define internal ptr @newNode(i64 noundef %0, i32 noundef %1) #4 {
  %3 = alloca i64, align 8
  %4 = alloca i32, align 4
  %5 = alloca ptr, align 8
  store i64 %0, ptr %3, align 8
  store i32 %1, ptr %4, align 4
  call void @llvm.lifetime.start.p0(i64 8, ptr %5) #8
  %6 = load i64, ptr %3, align 8
  %7 = call ptr @palloc0(i64 noundef %6)
  store ptr %7, ptr %5, align 8
  %8 = load i32, ptr %4, align 4
  %9 = load ptr, ptr %5, align 8
  %10 = getelementptr inbounds nuw %struct.Node, ptr %9, i32 0, i32 0
  store i32 %8, ptr %10, align 4
  %11 = load ptr, ptr %5, align 8
  call void @llvm.lifetime.end.p0(i64 8, ptr %5) #8
  ret ptr %11
}

; Function Attrs: nounwind uwtable
define internal zeroext i1 @exprIsNullConstant(ptr noundef %0) #0 {
  %2 = alloca i1, align 1
  %3 = alloca ptr, align 8
  %4 = alloca ptr, align 8
  %5 = alloca i32, align 4
  store ptr %0, ptr %3, align 8
  %6 = load ptr, ptr %3, align 8
  %7 = icmp ne ptr %6, null
  br i1 %7, label %8, label %24

8:                                                ; preds = %1
  %9 = load ptr, ptr %3, align 8
  %10 = getelementptr inbounds nuw %struct.Node, ptr %9, i32 0, i32 0
  %11 = load i32, ptr %10, align 4
  %12 = icmp eq i32 %11, 72
  br i1 %12, label %13, label %24

13:                                               ; preds = %8
  call void @llvm.lifetime.start.p0(i64 8, ptr %4) #8
  %14 = load ptr, ptr %3, align 8
  store ptr %14, ptr %4, align 8
  %15 = load ptr, ptr %4, align 8
  %16 = getelementptr inbounds nuw %struct.A_Const, ptr %15, i32 0, i32 2
  %17 = load i8, ptr %16, align 8, !range !6, !noundef !7
  %18 = trunc i8 %17 to i1
  br i1 %18, label %19, label %20

19:                                               ; preds = %13
  store i1 true, ptr %2, align 1
  store i32 1, ptr %5, align 4
  br label %21

20:                                               ; preds = %13
  store i32 0, ptr %5, align 4
  br label %21

21:                                               ; preds = %20, %19
  call void @llvm.lifetime.end.p0(i64 8, ptr %4) #8
  %22 = load i32, ptr %5, align 4
  switch i32 %22, label %27 [
    i32 0, label %23
    i32 1, label %25
  ]

23:                                               ; preds = %21
  br label %24

24:                                               ; preds = %23, %8, %1
  store i1 false, ptr %2, align 1
  br label %25

25:                                               ; preds = %24, %21
  %26 = load i1, ptr %2, align 1
  ret i1 %26

27:                                               ; preds = %21
  unreachable
}

; Function Attrs: inlinehint nounwind uwtable
define internal ptr @list_nth_cell(ptr noundef %0, i32 noundef %1) #4 {
  %3 = alloca ptr, align 8
  %4 = alloca i32, align 4
  store ptr %0, ptr %3, align 8
  store i32 %1, ptr %4, align 4
  %5 = load ptr, ptr %3, align 8
  %6 = getelementptr inbounds nuw %struct.List, ptr %5, i32 0, i32 3
  %7 = load ptr, ptr %6, align 8
  %8 = load i32, ptr %4, align 4
  %9 = sext i32 %8 to i64
  %10 = getelementptr inbounds %union.ListCell, ptr %7, i64 %9
  ret ptr %10
}

; Function Attrs: inlinehint nounwind uwtable
define internal i32 @list_length(ptr noundef %0) #4 {
  %2 = alloca ptr, align 8
  store ptr %0, ptr %2, align 8
  %3 = load ptr, ptr %2, align 8
  %4 = icmp ne ptr %3, null
  br i1 %4, label %5, label %9

5:                                                ; preds = %1
  %6 = load ptr, ptr %2, align 8
  %7 = getelementptr inbounds nuw %struct.List, ptr %6, i32 0, i32 1
  %8 = load i32, ptr %7, align 4
  br label %10

9:                                                ; preds = %1
  br label %10

10:                                               ; preds = %9, %5
  %11 = phi i32 [ %8, %5 ], [ 0, %9 ]
  ret i32 %11
}

; Function Attrs: nounwind uwtable
define internal ptr @transformAExprOp(ptr noundef %0, ptr noundef %1) #0 {
  %3 = alloca ptr, align 8
  %4 = alloca ptr, align 8
  %5 = alloca ptr, align 8
  %6 = alloca ptr, align 8
  %7 = alloca ptr, align 8
  %8 = alloca ptr, align 8
  %9 = alloca ptr, align 8
  %10 = alloca ptr, align 8
  store ptr %0, ptr %3, align 8
  store ptr %1, ptr %4, align 8
  call void @llvm.lifetime.start.p0(i64 8, ptr %5) #8
  %11 = load ptr, ptr %4, align 8
  %12 = getelementptr inbounds nuw %struct.A_Expr, ptr %11, i32 0, i32 3
  %13 = load ptr, ptr %12, align 8
  store ptr %13, ptr %5, align 8
  call void @llvm.lifetime.start.p0(i64 8, ptr %6) #8
  %14 = load ptr, ptr %4, align 8
  %15 = getelementptr inbounds nuw %struct.A_Expr, ptr %14, i32 0, i32 4
  %16 = load ptr, ptr %15, align 8
  store ptr %16, ptr %6, align 8
  call void @llvm.lifetime.start.p0(i64 8, ptr %7) #8
  %17 = load i8, ptr @Transform_null_equals, align 1, !range !6, !noundef !7
  %18 = trunc i8 %17 to i1
  br i1 %18, label %19, label %74

19:                                               ; preds = %2
  %20 = load ptr, ptr %4, align 8
  %21 = getelementptr inbounds nuw %struct.A_Expr, ptr %20, i32 0, i32 2
  %22 = load ptr, ptr %21, align 8
  %23 = call i32 @list_length(ptr noundef %22)
  %24 = icmp eq i32 %23, 1
  br i1 %24, label %25, label %74

25:                                               ; preds = %19
  %26 = load ptr, ptr %4, align 8
  %27 = getelementptr inbounds nuw %struct.A_Expr, ptr %26, i32 0, i32 2
  %28 = load ptr, ptr %27, align 8
  %29 = call ptr @list_nth_cell(ptr noundef %28, i32 noundef 0)
  %30 = load ptr, ptr %29, align 8
  %31 = getelementptr inbounds nuw %struct.String, ptr %30, i32 0, i32 1
  %32 = load ptr, ptr %31, align 8
  %33 = call i32 @strcmp(ptr noundef %32, ptr noundef @.str.63) #10
  %34 = icmp eq i32 %33, 0
  br i1 %34, label %35, label %74

35:                                               ; preds = %25
  %36 = load ptr, ptr %5, align 8
  %37 = call zeroext i1 @exprIsNullConstant(ptr noundef %36)
  br i1 %37, label %41, label %38

38:                                               ; preds = %35
  %39 = load ptr, ptr %6, align 8
  %40 = call zeroext i1 @exprIsNullConstant(ptr noundef %39)
  br i1 %40, label %41, label %74

41:                                               ; preds = %38, %35
  %42 = load ptr, ptr %5, align 8
  %43 = getelementptr inbounds nuw %struct.Node, ptr %42, i32 0, i32 0
  %44 = load i32, ptr %43, align 4
  %45 = icmp eq i32 %44, 34
  br i1 %45, label %74, label %46

46:                                               ; preds = %41
  %47 = load ptr, ptr %6, align 8
  %48 = getelementptr inbounds nuw %struct.Node, ptr %47, i32 0, i32 0
  %49 = load i32, ptr %48, align 4
  %50 = icmp eq i32 %49, 34
  br i1 %50, label %74, label %51

51:                                               ; preds = %46
  call void @llvm.lifetime.start.p0(i64 8, ptr %8) #8
  %52 = call ptr @newNode(i64 noundef 32, i32 noundef 52)
  store ptr %52, ptr %8, align 8
  %53 = load ptr, ptr %8, align 8
  %54 = getelementptr inbounds nuw %struct.NullTest, ptr %53, i32 0, i32 2
  store i32 0, ptr %54, align 8
  %55 = load ptr, ptr %4, align 8
  %56 = getelementptr inbounds nuw %struct.A_Expr, ptr %55, i32 0, i32 5
  %57 = load i32, ptr %56, align 8
  %58 = load ptr, ptr %8, align 8
  %59 = getelementptr inbounds nuw %struct.NullTest, ptr %58, i32 0, i32 4
  store i32 %57, ptr %59, align 8
  %60 = load ptr, ptr %5, align 8
  %61 = call zeroext i1 @exprIsNullConstant(ptr noundef %60)
  br i1 %61, label %62, label %66

62:                                               ; preds = %51
  %63 = load ptr, ptr %6, align 8
  %64 = load ptr, ptr %8, align 8
  %65 = getelementptr inbounds nuw %struct.NullTest, ptr %64, i32 0, i32 1
  store ptr %63, ptr %65, align 8
  br label %70

66:                                               ; preds = %51
  %67 = load ptr, ptr %5, align 8
  %68 = load ptr, ptr %8, align 8
  %69 = getelementptr inbounds nuw %struct.NullTest, ptr %68, i32 0, i32 1
  store ptr %67, ptr %69, align 8
  br label %70

70:                                               ; preds = %66, %62
  %71 = load ptr, ptr %3, align 8
  %72 = load ptr, ptr %8, align 8
  %73 = call ptr @transformExprRecurse(ptr noundef %71, ptr noundef %72)
  store ptr %73, ptr %7, align 8
  call void @llvm.lifetime.end.p0(i64 8, ptr %8) #8
  br label %175

74:                                               ; preds = %46, %41, %38, %25, %19, %2
  %75 = load ptr, ptr %5, align 8
  %76 = icmp ne ptr %75, null
  br i1 %76, label %77, label %115

77:                                               ; preds = %74
  %78 = load ptr, ptr %5, align 8
  %79 = getelementptr inbounds nuw %struct.Node, ptr %78, i32 0, i32 0
  %80 = load i32, ptr %79, align 4
  %81 = icmp eq i32 %80, 36
  br i1 %81, label %82, label %115

82:                                               ; preds = %77
  %83 = load ptr, ptr %6, align 8
  %84 = icmp ne ptr %83, null
  br i1 %84, label %85, label %115

85:                                               ; preds = %82
  %86 = load ptr, ptr %6, align 8
  %87 = getelementptr inbounds nuw %struct.Node, ptr %86, i32 0, i32 0
  %88 = load i32, ptr %87, align 4
  %89 = icmp eq i32 %88, 22
  br i1 %89, label %90, label %115

90:                                               ; preds = %85
  %91 = load ptr, ptr %6, align 8
  %92 = getelementptr inbounds nuw %struct.SubLink, ptr %91, i32 0, i32 1
  %93 = load i32, ptr %92, align 4
  %94 = icmp eq i32 %93, 4
  br i1 %94, label %95, label %115

95:                                               ; preds = %90
  call void @llvm.lifetime.start.p0(i64 8, ptr %9) #8
  %96 = load ptr, ptr %6, align 8
  store ptr %96, ptr %9, align 8
  %97 = load ptr, ptr %9, align 8
  %98 = getelementptr inbounds nuw %struct.SubLink, ptr %97, i32 0, i32 1
  store i32 3, ptr %98, align 4
  %99 = load ptr, ptr %5, align 8
  %100 = load ptr, ptr %9, align 8
  %101 = getelementptr inbounds nuw %struct.SubLink, ptr %100, i32 0, i32 3
  store ptr %99, ptr %101, align 8
  %102 = load ptr, ptr %4, align 8
  %103 = getelementptr inbounds nuw %struct.A_Expr, ptr %102, i32 0, i32 2
  %104 = load ptr, ptr %103, align 8
  %105 = load ptr, ptr %9, align 8
  %106 = getelementptr inbounds nuw %struct.SubLink, ptr %105, i32 0, i32 4
  store ptr %104, ptr %106, align 8
  %107 = load ptr, ptr %4, align 8
  %108 = getelementptr inbounds nuw %struct.A_Expr, ptr %107, i32 0, i32 5
  %109 = load i32, ptr %108, align 8
  %110 = load ptr, ptr %9, align 8
  %111 = getelementptr inbounds nuw %struct.SubLink, ptr %110, i32 0, i32 6
  store i32 %109, ptr %111, align 8
  %112 = load ptr, ptr %3, align 8
  %113 = load ptr, ptr %9, align 8
  %114 = call ptr @transformExprRecurse(ptr noundef %112, ptr noundef %113)
  store ptr %114, ptr %7, align 8
  call void @llvm.lifetime.end.p0(i64 8, ptr %9) #8
  br label %174

115:                                              ; preds = %90, %85, %82, %77, %74
  %116 = load ptr, ptr %5, align 8
  %117 = icmp ne ptr %116, null
  br i1 %117, label %118, label %152

118:                                              ; preds = %115
  %119 = load ptr, ptr %5, align 8
  %120 = getelementptr inbounds nuw %struct.Node, ptr %119, i32 0, i32 0
  %121 = load i32, ptr %120, align 4
  %122 = icmp eq i32 %121, 36
  br i1 %122, label %123, label %152

123:                                              ; preds = %118
  %124 = load ptr, ptr %6, align 8
  %125 = icmp ne ptr %124, null
  br i1 %125, label %126, label %152

126:                                              ; preds = %123
  %127 = load ptr, ptr %6, align 8
  %128 = getelementptr inbounds nuw %struct.Node, ptr %127, i32 0, i32 0
  %129 = load i32, ptr %128, align 4
  %130 = icmp eq i32 %129, 36
  br i1 %130, label %131, label %152

131:                                              ; preds = %126
  %132 = load ptr, ptr %3, align 8
  %133 = load ptr, ptr %5, align 8
  %134 = call ptr @transformExprRecurse(ptr noundef %132, ptr noundef %133)
  store ptr %134, ptr %5, align 8
  %135 = load ptr, ptr %3, align 8
  %136 = load ptr, ptr %6, align 8
  %137 = call ptr @transformExprRecurse(ptr noundef %135, ptr noundef %136)
  store ptr %137, ptr %6, align 8
  %138 = load ptr, ptr %3, align 8
  %139 = load ptr, ptr %4, align 8
  %140 = getelementptr inbounds nuw %struct.A_Expr, ptr %139, i32 0, i32 2
  %141 = load ptr, ptr %140, align 8
  %142 = load ptr, ptr %5, align 8
  %143 = getelementptr inbounds nuw %struct.RowExpr, ptr %142, i32 0, i32 1
  %144 = load ptr, ptr %143, align 8
  %145 = load ptr, ptr %6, align 8
  %146 = getelementptr inbounds nuw %struct.RowExpr, ptr %145, i32 0, i32 1
  %147 = load ptr, ptr %146, align 8
  %148 = load ptr, ptr %4, align 8
  %149 = getelementptr inbounds nuw %struct.A_Expr, ptr %148, i32 0, i32 5
  %150 = load i32, ptr %149, align 8
  %151 = call ptr @make_row_comparison_op(ptr noundef %138, ptr noundef %141, ptr noundef %144, ptr noundef %147, i32 noundef %150)
  store ptr %151, ptr %7, align 8
  br label %173

152:                                              ; preds = %126, %123, %118, %115
  call void @llvm.lifetime.start.p0(i64 8, ptr %10) #8
  %153 = load ptr, ptr %3, align 8
  %154 = getelementptr inbounds nuw %struct.ParseState, ptr %153, i32 0, i32 31
  %155 = load ptr, ptr %154, align 8
  store ptr %155, ptr %10, align 8
  %156 = load ptr, ptr %3, align 8
  %157 = load ptr, ptr %5, align 8
  %158 = call ptr @transformExprRecurse(ptr noundef %156, ptr noundef %157)
  store ptr %158, ptr %5, align 8
  %159 = load ptr, ptr %3, align 8
  %160 = load ptr, ptr %6, align 8
  %161 = call ptr @transformExprRecurse(ptr noundef %159, ptr noundef %160)
  store ptr %161, ptr %6, align 8
  %162 = load ptr, ptr %3, align 8
  %163 = load ptr, ptr %4, align 8
  %164 = getelementptr inbounds nuw %struct.A_Expr, ptr %163, i32 0, i32 2
  %165 = load ptr, ptr %164, align 8
  %166 = load ptr, ptr %5, align 8
  %167 = load ptr, ptr %6, align 8
  %168 = load ptr, ptr %10, align 8
  %169 = load ptr, ptr %4, align 8
  %170 = getelementptr inbounds nuw %struct.A_Expr, ptr %169, i32 0, i32 5
  %171 = load i32, ptr %170, align 8
  %172 = call ptr @make_op(ptr noundef %162, ptr noundef %165, ptr noundef %166, ptr noundef %167, ptr noundef %168, i32 noundef %171)
  store ptr %172, ptr %7, align 8
  call void @llvm.lifetime.end.p0(i64 8, ptr %10) #8
  br label %173

173:                                              ; preds = %152, %131
  br label %174

174:                                              ; preds = %173, %95
  br label %175

175:                                              ; preds = %174, %70
  %176 = load ptr, ptr %7, align 8
  call void @llvm.lifetime.end.p0(i64 8, ptr %7) #8
  call void @llvm.lifetime.end.p0(i64 8, ptr %6) #8
  call void @llvm.lifetime.end.p0(i64 8, ptr %5) #8
  ret ptr %176
}