; Function Attrs: nounwind uwtable
define internal fastcc ptr @transformAExprOp(ptr noundef %0, ptr noundef nonnull readonly captures(none) %1) unnamed_addr #0 {
  %3 = getelementptr inbounds nuw i8, ptr %1, i64 16
  %4 = load ptr, ptr %3, align 8
  %5 = getelementptr inbounds nuw i8, ptr %1, i64 24
  %6 = load ptr, ptr %5, align 8
  %7 = load i8, ptr @Transform_null_equals, align 1, !range !4, !noundef !5
  %8 = trunc nuw i8 %7 to i1
  br i1 %8, label %9, label %exprIsNullConstant.exit67

9:                                                ; preds = %2
  %10 = getelementptr inbounds nuw i8, ptr %1, i64 8
  %11 = load ptr, ptr %10, align 8
  %.not.i = icmp eq ptr %11, null
  br i1 %.not.i, label %exprIsNullConstant.exit67, label %list_length.exit

list_length.exit:                                 ; preds = %9
  %12 = getelementptr inbounds nuw i8, ptr %11, i64 4
  %13 = load i32, ptr %12, align 4
  %14 = icmp eq i32 %13, 1
  br i1 %14, label %sub_0, label %exprIsNullConstant.exit67

sub_0:                                            ; preds = %list_length.exit
  %15 = getelementptr i8, ptr %11, i64 16
  %.val = load ptr, ptr %15, align 8
  %16 = load ptr, ptr %.val, align 8
  %17 = getelementptr inbounds nuw i8, ptr %16, i64 8
  %18 = load ptr, ptr %17, align 8
  %19 = load i8, ptr %18, align 1
  %.not76 = icmp eq i8 %19, 61
  br i1 %.not76, label %.tail, label %exprIsNullConstant.exit67

.tail:                                            ; preds = %sub_0
  %20 = getelementptr inbounds nuw i8, ptr %18, i64 1
  %21 = load i8, ptr %20, align 1
  %22 = icmp eq i8 %21, 0
  br i1 %22, label %23, label %exprIsNullConstant.exit67

23:                                               ; preds = %.tail
  %.not.i64 = icmp eq ptr %4, null
  br i1 %.not.i64, label %exprIsNullConstant.exit, label %24

24:                                               ; preds = %23
  %25 = load i32, ptr %4, align 4
  %26 = icmp eq i32 %25, 72
  br i1 %26, label %27, label %exprIsNullConstant.exit

27:                                               ; preds = %24
  %28 = getelementptr inbounds nuw i8, ptr %4, i64 24
  %29 = load i8, ptr %28, align 8, !range !4, !noundef !5
  %30 = trunc nuw i8 %29 to i1
  br i1 %30, label %exprIsNullConstant.exit.thread.thread, label %exprIsNullConstant.exit

exprIsNullConstant.exit:                          ; preds = %27, %24, %23
  %.not.i65 = icmp eq ptr %6, null
  br i1 %.not.i65, label %exprIsNullConstant.exit67, label %31

31:                                               ; preds = %exprIsNullConstant.exit
  %32 = load i32, ptr %6, align 4
  %33 = icmp eq i32 %32, 72
  br i1 %33, label %34, label %exprIsNullConstant.exit67

34:                                               ; preds = %31
  %35 = getelementptr inbounds nuw i8, ptr %6, i64 24
  %36 = load i8, ptr %35, align 8, !range !4, !noundef !5
  %37 = trunc nuw i8 %36 to i1
  br i1 %37, label %exprIsNullConstant.exit.thread, label %exprIsNullConstant.exit67

exprIsNullConstant.exit.thread:                   ; preds = %34
  %.pre = load i32, ptr %4, align 4
  %38 = icmp eq i32 %.pre, 34
  br i1 %38, label %.critedge, label %exprIsNullConstant.exit.thread.thread

exprIsNullConstant.exit.thread.thread:            ; preds = %27, %exprIsNullConstant.exit.thread
  %39 = phi i32 [ %.pre, %exprIsNullConstant.exit.thread ], [ 72, %27 ]
  %40 = load i32, ptr %6, align 4
  %41 = icmp eq i32 %40, 34
  br i1 %41, label %exprIsNullConstant.exit67.thread74, label %42

42:                                               ; preds = %exprIsNullConstant.exit.thread.thread
  %43 = tail call noundef ptr @palloc0(i64 noundef 32) #9
  store i32 52, ptr %43, align 4
  %44 = getelementptr inbounds nuw i8, ptr %43, i64 16
  store i32 0, ptr %44, align 8
  %45 = getelementptr inbounds nuw i8, ptr %1, i64 32
  %46 = load i32, ptr %45, align 8
  %47 = getelementptr inbounds nuw i8, ptr %43, i64 24
  store i32 %46, ptr %47, align 8
  %48 = load i32, ptr %4, align 4
  %49 = icmp eq i32 %48, 72
  br i1 %49, label %50, label %exprIsNullConstant.exit70

50:                                               ; preds = %42
  %51 = getelementptr inbounds nuw i8, ptr %4, i64 24
  %52 = load i8, ptr %51, align 8, !range !4, !noundef !5
  %53 = trunc nuw i8 %52 to i1
  br i1 %53, label %54, label %exprIsNullConstant.exit70

exprIsNullConstant.exit70:                        ; preds = %50, %42
  br label %54

54:                                               ; preds = %50, %exprIsNullConstant.exit70
  %.sink = phi ptr [ %4, %exprIsNullConstant.exit70 ], [ %6, %50 ]
  %55 = getelementptr inbounds nuw i8, ptr %43, i64 8
  store ptr %.sink, ptr %55, align 8
  %56 = tail call fastcc ptr @transformExprRecurse(ptr noundef %0, ptr noundef nonnull %43)
  br label %96

exprIsNullConstant.exit67:                        ; preds = %sub_0, %9, %34, %31, %exprIsNullConstant.exit, %.tail, %list_length.exit, %2
  %.not = icmp eq ptr %4, null
  br i1 %.not, label %.critedge, label %exprIsNullConstant.exit67.exprIsNullConstant.exit67.thread74_crit_edge

exprIsNullConstant.exit67.exprIsNullConstant.exit67.thread74_crit_edge: ; preds = %exprIsNullConstant.exit67
  %.pre77 = load i32, ptr %4, align 4
  br label %exprIsNullConstant.exit67.thread74

exprIsNullConstant.exit67.thread74:               ; preds = %exprIsNullConstant.exit67.exprIsNullConstant.exit67.thread74_crit_edge, %exprIsNullConstant.exit.thread.thread
  %57 = phi i32 [ %.pre77, %exprIsNullConstant.exit67.exprIsNullConstant.exit67.thread74_crit_edge ], [ %39, %exprIsNullConstant.exit.thread.thread ]
  %58 = icmp eq i32 %57, 36
  %59 = icmp ne ptr %6, null
  %or.cond = select i1 %58, i1 %59, i1 false
  br i1 %or.cond, label %60, label %.critedge

60:                                               ; preds = %exprIsNullConstant.exit67.thread74
  %61 = load i32, ptr %6, align 4
  switch i32 %61, label %.critedge [
    i32 22, label %62
    i32 36, label %75
  ]

62:                                               ; preds = %60
  %63 = getelementptr inbounds nuw i8, ptr %6, i64 4
  %64 = load i32, ptr %63, align 4
  %65 = icmp eq i32 %64, 4
  br i1 %65, label %66, label %.critedge

66:                                               ; preds = %62
  store i32 3, ptr %63, align 4
  %67 = getelementptr inbounds nuw i8, ptr %6, i64 16
  store ptr %4, ptr %67, align 8
  %68 = getelementptr inbounds nuw i8, ptr %1, i64 8
  %69 = load ptr, ptr %68, align 8
  %70 = getelementptr inbounds nuw i8, ptr %6, i64 24
  store ptr %69, ptr %70, align 8
  %71 = getelementptr inbounds nuw i8, ptr %1, i64 32
  %72 = load i32, ptr %71, align 8
  %73 = getelementptr inbounds nuw i8, ptr %6, i64 40
  store i32 %72, ptr %73, align 8
  %74 = tail call fastcc ptr @transformExprRecurse(ptr noundef %0, ptr noundef nonnull %6)
  br label %96

75:                                               ; preds = %60
  %76 = tail call fastcc ptr @transformExprRecurse(ptr noundef %0, ptr noundef nonnull %4)
  %77 = tail call fastcc ptr @transformExprRecurse(ptr noundef %0, ptr noundef nonnull %6)
  %78 = getelementptr inbounds nuw i8, ptr %1, i64 8
  %79 = load ptr, ptr %78, align 8
  %80 = getelementptr inbounds nuw i8, ptr %76, i64 8
  %81 = load ptr, ptr %80, align 8
  %82 = getelementptr inbounds nuw i8, ptr %77, i64 8
  %83 = load ptr, ptr %82, align 8
  %84 = getelementptr inbounds nuw i8, ptr %1, i64 32
  %85 = load i32, ptr %84, align 8
  %86 = tail call fastcc ptr @make_row_comparison_op(ptr noundef %0, ptr noundef %79, ptr noundef %81, ptr noundef %83, i32 noundef %85)
  br label %96

.critedge:                                        ; preds = %60, %62, %exprIsNullConstant.exit.thread, %exprIsNullConstant.exit67.thread74, %exprIsNullConstant.exit67
  %87 = getelementptr inbounds nuw i8, ptr %0, i64 192
  %88 = load ptr, ptr %87, align 8
  %89 = tail call fastcc ptr @transformExprRecurse(ptr noundef %0, ptr noundef %4)
  %90 = tail call fastcc ptr @transformExprRecurse(ptr noundef %0, ptr noundef %6)
  %91 = getelementptr inbounds nuw i8, ptr %1, i64 8
  %92 = load ptr, ptr %91, align 8
  %93 = getelementptr inbounds nuw i8, ptr %1, i64 32
  %94 = load i32, ptr %93, align 8
  %95 = tail call ptr @make_op(ptr noundef %0, ptr noundef %92, ptr noundef %89, ptr noundef %90, ptr noundef %88, i32 noundef %94) #9
  br label %96

96:                                               ; preds = %66, %.critedge, %75, %54
  %.0 = phi ptr [ %74, %66 ], [ %86, %75 ], [ %95, %.critedge ], [ %56, %54 ]
  ret ptr %.0
}